target datalayout = "e-m:e-p270:32:32-p271:32:32-p272:64:64-i64:64-i128:128-f80:128-n8:16:32:64-S128"
target triple = "x86_64-pc-linux-gnu"

%struct.ident_t = type { i32, i32, i32, i32, ptr }
%"class.ncnn::Mat" = type { ptr, ptr, i64, i32, ptr, i32, i32, i32, i32, i32, i64 }

@1 = private unnamed_addr constant %struct.ident_t { i32 0, i32 514, i32 0, i32 22, ptr @0 }, align 8

; Function Attrs: alwaysinline mustprogress nounwind uwtable
define internal void @_ZN4ncnnL8fastFreeEPv(ptr noundef %0) #3 {
  %2 = alloca ptr, align 8
  store ptr %0, ptr %2, align 8, !tbaa !66
  %3 = load ptr, ptr %2, align 8, !tbaa !66
  %4 = icmp ne ptr %3, null
  br i1 %4, label %5, label %7

5:                                                ; preds = %1
  %6 = load ptr, ptr %2, align 8, !tbaa !66
  call void @free(ptr noundef %6) #9
  br label %7

7:                                                ; preds = %5, %1
  ret void
}

; Function Attrs: alwaysinline mustprogress nounwind uwtable
define internal noundef i64 @_ZN4ncnnL9alignSizeEmi(i64 noundef %0, i32 noundef %1) #3 {
  %3 = alloca i64, align 8
  %4 = alloca i32, align 4
  store i64 %0, ptr %3, align 8, !tbaa !50
  store i32 %1, ptr %4, align 4, !tbaa !46
  %5 = load i64, ptr %3, align 8, !tbaa !50
  %6 = load i32, ptr %4, align 4, !tbaa !46
  %7 = sext i32 %6 to i64
  %8 = add i64 %5, %7
  %9 = sub i64 %8, 1
  %10 = load i32, ptr %4, align 4, !tbaa !46
  %11 = sub nsw i32 0, %10
  %12 = sext i32 %11 to i64
  %13 = and i64 %9, %12
  ret i64 %13
}

; Function Attrs: alwaysinline mustprogress uwtable
define linkonce_odr hidden void @_ZN4ncnn3Mat7releaseEv(ptr noundef nonnull align 8 dereferenceable(72) %0) #6 comdat align 2 {
  %2 = alloca ptr, align 8
  %3 = alloca i32, align 4
  %4 = alloca i32, align 4
  store ptr %0, ptr %2, align 8, !tbaa !42
  %5 = load ptr, ptr %2, align 8
  %6 = getelementptr inbounds nuw %"class.ncnn::Mat", ptr %5, i32 0, i32 1
  %7 = load ptr, ptr %6, align 8, !tbaa !60
  %8 = icmp ne ptr %7, null
  br i1 %8, label %9, label %32

9:                                                ; preds = %1
  %10 = getelementptr inbounds nuw %"class.ncnn::Mat", ptr %5, i32 0, i32 1
  %11 = load ptr, ptr %10, align 8, !tbaa !60
  store i32 -1, ptr %3, align 4, !tbaa !46
  %12 = load i32, ptr %3, align 4
  %13 = atomicrmw add ptr %11, i32 %12 acq_rel, align 4
  store i32 %13, ptr %4, align 4
  %14 = load i32, ptr %4, align 4, !tbaa !46
  %15 = icmp eq i32 %14, 1
  br i1 %15, label %16, label %32

16:                                               ; preds = %9
  %17 = getelementptr inbounds nuw %"class.ncnn::Mat", ptr %5, i32 0, i32 4
  %18 = load ptr, ptr %17, align 8, !tbaa !62
  %19 = icmp ne ptr %18, null
  br i1 %19, label %20, label %28

20:                                               ; preds = %16
  %21 = getelementptr inbounds nuw %"class.ncnn::Mat", ptr %5, i32 0, i32 4
  %22 = load ptr, ptr %21, align 8, !tbaa !62
  %23 = getelementptr inbounds nuw %"class.ncnn::Mat", ptr %5, i32 0, i32 0
  %24 = load ptr, ptr %23, align 8, !tbaa !59
  %25 = load ptr, ptr %22, align 8, !tbaa !9
  %26 = getelementptr inbounds ptr, ptr %25, i64 3
  %27 = load ptr, ptr %26, align 8
  call void %27(ptr noundef nonnull align 8 dereferenceable(8) %22, ptr noundef %24)
  br label %31

28:                                               ; preds = %16
  %29 = getelementptr inbounds nuw %"class.ncnn::Mat", ptr %5, i32 0, i32 0
  %30 = load ptr, ptr %29, align 8, !tbaa !59
  call void @_ZN4ncnnL8fastFreeEPv(ptr noundef %30)
  br label %31

31:                                               ; preds = %28, %20
  br label %32

32:                                               ; preds = %31, %9, %1
  %33 = getelementptr inbounds nuw %"class.ncnn::Mat", ptr %5, i32 0, i32 0
  store ptr null, ptr %33, align 8, !tbaa !59
  %34 = getelementptr inbounds nuw %"class.ncnn::Mat", ptr %5, i32 0, i32 2
  store i64 0, ptr %34, align 8, !tbaa !49
  %35 = getelementptr inbounds nuw %"class.ncnn::Mat", ptr %5, i32 0, i32 3
  store i32 0, ptr %35, align 8, !tbaa !61
  %36 = getelementptr inbounds nuw %"class.ncnn::Mat", ptr %5, i32 0, i32 5
  store i32 0, ptr %36, align 8, !tbaa !63
  %37 = getelementptr inbounds nuw %"class.ncnn::Mat", ptr %5, i32 0, i32 6
  store i32 0, ptr %37, align 4, !tbaa !45
  %38 = getelementptr inbounds nuw %"class.ncnn::Mat", ptr %5, i32 0, i32 7
  store i32 0, ptr %38, align 8, !tbaa !47
  %39 = getelementptr inbounds nuw %"class.ncnn::Mat", ptr %5, i32 0, i32 8
  store i32 0, ptr %39, align 4, !tbaa !64
  %40 = getelementptr inbounds nuw %"class.ncnn::Mat", ptr %5, i32 0, i32 9
  store i32 0, ptr %40, align 8, !tbaa !48
  %41 = getelementptr inbounds nuw %"class.ncnn::Mat", ptr %5, i32 0, i32 10
  store i64 0, ptr %41, align 8, !tbaa !65
  %42 = getelementptr inbounds nuw %"class.ncnn::Mat", ptr %5, i32 0, i32 1
  store ptr null, ptr %42, align 8, !tbaa !60
  ret void
}

; Function Attrs: alwaysinline mustprogress uwtable
define linkonce_odr hidden void @_ZN4ncnn3MatC2EiiiPvmiPNS_9AllocatorE(ptr noundef nonnull align 8 dereferenceable(72) %0, i32 noundef %1, i32 noundef %2, i32 noundef %3, ptr noundef %4, i64 noundef %5, i32 noundef %6, ptr noundef %7) unnamed_addr #6 comdat align 2 {
  %9 = alloca ptr, align 8
  %10 = alloca i32, align 4
  %11 = alloca i32, align 4
  %12 = alloca i32, align 4
  %13 = alloca ptr, align 8
  %14 = alloca i64, align 8
  %15 = alloca i32, align 4
  %16 = alloca ptr, align 8
  store ptr %0, ptr %9, align 8, !tbaa !42
  store i32 %1, ptr %10, align 4, !tbaa !46
  store i32 %2, ptr %11, align 4, !tbaa !46
  store i32 %3, ptr %12, align 4, !tbaa !46
  store ptr %4, ptr %13, align 8, !tbaa !66
  store i64 %5, ptr %14, align 8, !tbaa !50
  store i32 %6, ptr %15, align 4, !tbaa !46
  store ptr %7, ptr %16, align 8, !tbaa !81
  %17 = load ptr, ptr %9, align 8
  %18 = getelementptr inbounds nuw %"class.ncnn::Mat", ptr %17, i32 0, i32 0
  %19 = load ptr, ptr %13, align 8, !tbaa !66
  store ptr %19, ptr %18, align 8, !tbaa !59
  %20 = getelementptr inbounds nuw %"class.ncnn::Mat", ptr %17, i32 0, i32 1
  store ptr null, ptr %20, align 8, !tbaa !60
  %21 = getelementptr inbounds nuw %"class.ncnn::Mat", ptr %17, i32 0, i32 2
  %22 = load i64, ptr %14, align 8, !tbaa !50
  store i64 %22, ptr %21, align 8, !tbaa !49
  %23 = getelementptr inbounds nuw %"class.ncnn::Mat", ptr %17, i32 0, i32 3
  %24 = load i32, ptr %15, align 4, !tbaa !46
  store i32 %24, ptr %23, align 8, !tbaa !61
  %25 = getelementptr inbounds nuw %"class.ncnn::Mat", ptr %17, i32 0, i32 4
  %26 = load ptr, ptr %16, align 8, !tbaa !81
  store ptr %26, ptr %25, align 8, !tbaa !62
  %27 = getelementptr inbounds nuw %"class.ncnn::Mat", ptr %17, i32 0, i32 5
  store i32 3, ptr %27, align 8, !tbaa !63
  %28 = getelementptr inbounds nuw %"class.ncnn::Mat", ptr %17, i32 0, i32 6
  %29 = load i32, ptr %10, align 4, !tbaa !46
  store i32 %29, ptr %28, align 4, !tbaa !45
  %30 = getelementptr inbounds nuw %"class.ncnn::Mat", ptr %17, i32 0, i32 7
  %31 = load i32, ptr %11, align 4, !tbaa !46
  store i32 %31, ptr %30, align 8, !tbaa !47
  %32 = getelementptr inbounds nuw %"class.ncnn::Mat", ptr %17, i32 0, i32 8
  store i32 1, ptr %32, align 4, !tbaa !64
  %33 = getelementptr inbounds nuw %"class.ncnn::Mat", ptr %17, i32 0, i32 9
  %34 = load i32, ptr %12, align 4, !tbaa !46
  store i32 %34, ptr %33, align 8, !tbaa !48
  %35 = getelementptr inbounds nuw %"class.ncnn::Mat", ptr %17, i32 0, i32 6
  %36 = load i32, ptr %35, align 4, !tbaa !45
  %37 = sext i32 %36 to i64
  %38 = getelementptr inbounds nuw %"class.ncnn::Mat", ptr %17, i32 0, i32 7
  %39 = load i32, ptr %38, align 8, !tbaa !47
  %40 = sext i32 %39 to i64
  %41 = mul i64 %37, %40
  %42 = getelementptr inbounds nuw %"class.ncnn::Mat", ptr %17, i32 0, i32 2
  %43 = load i64, ptr %42, align 8, !tbaa !49
  %44 = mul i64 %41, %43
  %45 = call noundef i64 @_ZN4ncnnL9alignSizeEmi(i64 noundef %44, i32 noundef 16)
  %46 = getelementptr inbounds nuw %"class.ncnn::Mat", ptr %17, i32 0, i32 2
  %47 = load i64, ptr %46, align 8, !tbaa !49
  %48 = udiv i64 %45, %47
  %49 = getelementptr inbounds nuw %"class.ncnn::Mat", ptr %17, i32 0, i32 10
  store i64 %48, ptr %49, align 8, !tbaa !65
  ret void
}

; Function Attrs: noinline noreturn nounwind uwtable
define linkonce_odr hidden void @__clang_call_terminate(ptr noundef %0) #7 comdat {
  %2 = call ptr @__cxa_begin_catch(ptr %0) #9
  call void @_ZSt9terminatev() #13
  unreachable
}

; Function Attrs: alwaysinline mustprogress nounwind uwtable
define linkonce_odr hidden noundef nonnull align 4 dereferenceable(4) ptr @_ZN4ncnn3MatixEm(ptr noundef nonnull align 8 dereferenceable(72) %0, i64 noundef %1) #3 comdat align 2 {
  %3 = alloca ptr, align 8
  %4 = alloca i64, align 8
  store ptr %0, ptr %3, align 8, !tbaa !42
  store i64 %1, ptr %4, align 8, !tbaa !50
  %5 = load ptr, ptr %3, align 8
  %6 = getelementptr inbounds nuw %"class.ncnn::Mat", ptr %5, i32 0, i32 0
  %7 = load ptr, ptr %6, align 8, !tbaa !59
  %8 = load i64, ptr %4, align 8, !tbaa !50
  %9 = getelementptr inbounds nuw float, ptr %7, i64 %8
  ret ptr %9
}

; Function Attrs: alwaysinline mustprogress nounwind uwtable
define linkonce_odr hidden void @_ZN4ncnn3MatD2Ev(ptr noundef nonnull align 8 dereferenceable(72) %0) unnamed_addr #3 comdat align 2 personality ptr @__gxx_personality_v0 {
  %2 = alloca ptr, align 8
  store ptr %0, ptr %2, align 8, !tbaa !42
  %3 = load ptr, ptr %2, align 8
  invoke void @_ZN4ncnn3Mat7releaseEv(ptr noundef nonnull align 8 dereferenceable(72) %3)
          to label %4 unwind label %5

4:                                                ; preds = %1
  ret void

5:                                                ; preds = %1
  %6 = landingpad { ptr, i32 }
          catch ptr null
  %7 = extractvalue { ptr, i32 } %6, 0
  call void @__clang_call_terminate(ptr %7) #13
  unreachable
}

; Function Attrs: alwaysinline mustprogress nounwind uwtable
define linkonce_odr hidden noundef ptr @_ZN4ncnn3MatcvPT_IKfEEv(ptr noundef nonnull align 8 dereferenceable(72) %0) #3 comdat align 2 {
  %2 = alloca ptr, align 8
  store ptr %0, ptr %2, align 8, !tbaa !42
  %3 = load ptr, ptr %2, align 8
  %4 = getelementptr inbounds nuw %"class.ncnn::Mat", ptr %3, i32 0, i32 0
  %5 = load ptr, ptr %4, align 8, !tbaa !59
  ret ptr %5
}

; Function Attrs: alwaysinline mustprogress uwtable
define linkonce_odr hidden void @_ZN4ncnn3Mat7channelEi(ptr dead_on_unwind noalias writable sret(%"class.ncnn::Mat") align 8 %0, ptr noundef nonnull align 8 dereferenceable(72) %1, i32 noundef %2) #6 comdat align 2 {
  %4 = alloca ptr, align 8
  %5 = alloca ptr, align 8
  %6 = alloca i32, align 4
  %7 = alloca i1, align 1
  store ptr %0, ptr %4, align 8
  store ptr %1, ptr %5, align 8, !tbaa !42
  store i32 %2, ptr %6, align 4, !tbaa !46
  %8 = load ptr, ptr %5, align 8
  store i1 false, ptr %7, align 1
  %9 = getelementptr inbounds nuw %"class.ncnn::Mat", ptr %8, i32 0, i32 6
  %10 = load i32, ptr %9, align 4, !tbaa !45
  %11 = getelementptr inbounds nuw %"class.ncnn::Mat", ptr %8, i32 0, i32 7
  %12 = load i32, ptr %11, align 8, !tbaa !47
  %13 = getelementptr inbounds nuw %"class.ncnn::Mat", ptr %8, i32 0, i32 8
  %14 = load i32, ptr %13, align 4, !tbaa !64
  %15 = getelementptr inbounds nuw %"class.ncnn::Mat", ptr %8, i32 0, i32 0
  %16 = load ptr, ptr %15, align 8, !tbaa !59
  %17 = getelementptr inbounds nuw %"class.ncnn::Mat", ptr %8, i32 0, i32 10
  %18 = load i64, ptr %17, align 8, !tbaa !65
  %19 = load i32, ptr %6, align 4, !tbaa !46
  %20 = sext i32 %19 to i64
  %21 = mul i64 %18, %20
  %22 = getelementptr inbounds nuw %"class.ncnn::Mat", ptr %8, i32 0, i32 2
  %23 = load i64, ptr %22, align 8, !tbaa !49
  %24 = mul i64 %21, %23
  %25 = getelementptr inbounds nuw i8, ptr %16, i64 %24
  %26 = getelementptr inbounds nuw %"class.ncnn::Mat", ptr %8, i32 0, i32 2
  %27 = load i64, ptr %26, align 8, !tbaa !49
  %28 = getelementptr inbounds nuw %"class.ncnn::Mat", ptr %8, i32 0, i32 3
  %29 = load i32, ptr %28, align 8, !tbaa !61
  %30 = getelementptr inbounds nuw %"class.ncnn::Mat", ptr %8, i32 0, i32 4
  %31 = load ptr, ptr %30, align 8, !tbaa !62
  call void @_ZN4ncnn3MatC2EiiiPvmiPNS_9AllocatorE(ptr noundef nonnull align 8 dereferenceable(72) %0, i32 noundef %10, i32 noundef %12, i32 noundef %14, ptr noundef %25, i64 noundef %27, i32 noundef %29, ptr noundef %31)
  %32 = getelementptr inbounds nuw %"class.ncnn::Mat", ptr %8, i32 0, i32 5
  %33 = load i32, ptr %32, align 8, !tbaa !63
  %34 = sub nsw i32 %33, 1
  %35 = getelementptr inbounds nuw %"class.ncnn::Mat", ptr %0, i32 0, i32 5
  store i32 %34, ptr %35, align 8, !tbaa !63
  %36 = getelementptr inbounds nuw %"class.ncnn::Mat", ptr %8, i32 0, i32 5
  %37 = load i32, ptr %36, align 8, !tbaa !63
  %38 = icmp eq i32 %37, 4
  br i1 %38, label %39, label %48

39:                                               ; preds = %3
  %40 = getelementptr inbounds nuw %"class.ncnn::Mat", ptr %8, i32 0, i32 6
  %41 = load i32, ptr %40, align 4, !tbaa !45
  %42 = sext i32 %41 to i64
  %43 = getelementptr inbounds nuw %"class.ncnn::Mat", ptr %8, i32 0, i32 7
  %44 = load i32, ptr %43, align 8, !tbaa !47
  %45 = sext i32 %44 to i64
  %46 = mul i64 %42, %45
  %47 = getelementptr inbounds nuw %"class.ncnn::Mat", ptr %0, i32 0, i32 10
  store i64 %46, ptr %47, align 8, !tbaa !65
  br label %48

48:                                               ; preds = %39, %3
  store i1 true, ptr %7, align 1
  %49 = load i1, ptr %7, align 1
  br i1 %49, label %51, label %50

50:                                               ; preds = %48
  call void @_ZN4ncnn3MatD2Ev(ptr noundef nonnull align 8 dereferenceable(72) %0) #9
  br label %51

51:                                               ; preds = %50, %48
  ret void
}

; Function Attrs: alwaysinline norecurse nounwind uwtable
define internal void @_ZNK4ncnn9Normalize15forward_inplaceERNS_3MatERKNS_6OptionE.omp_outlined(ptr noalias noundef %0, ptr noalias noundef %1, ptr noundef nonnull align 4 dereferenceable(4) %2, ptr noundef nonnull align 8 dereferenceable(72) %3, ptr noundef nonnull align 4 dereferenceable(4) %4, ptr noundef nonnull align 8 dereferenceable(72) %5) #8 personality ptr @__gxx_personality_v0 {
  %7 = alloca ptr, align 8
  %8 = alloca ptr, align 8
  %9 = alloca ptr, align 8
  %10 = alloca ptr, align 8
  %11 = alloca ptr, align 8
  %12 = alloca ptr, align 8
  %13 = alloca ptr, align 8
  %14 = alloca i32, align 4
  %15 = alloca i32, align 4
  %16 = alloca i32, align 4
  %17 = alloca i32, align 4
  %18 = alloca i32, align 4
  %19 = alloca i32, align 4
  %20 = alloca i32, align 4
  %21 = alloca i32, align 4
  %22 = alloca i32, align 4
  %23 = alloca ptr, align 8
  %24 = alloca %"class.ncnn::Mat", align 8
  %25 = alloca float, align 4
  %26 = alloca i32, align 4
  store ptr %0, ptr %7, align 8, !tbaa !67
  store ptr %1, ptr %8, align 8, !tbaa !67
  store ptr %2, ptr %9, align 8, !tbaa !67
  store ptr %3, ptr %10, align 8, !tbaa !42
  store ptr %4, ptr %11, align 8, !tbaa !67
  store ptr %5, ptr %12, align 8, !tbaa !42
  %27 = load ptr, ptr %9, align 8, !tbaa !67
  %28 = load ptr, ptr %10, align 8, !tbaa !42
  %29 = load ptr, ptr %11, align 8, !tbaa !67
  %30 = load ptr, ptr %12, align 8, !tbaa !42
  store ptr %28, ptr %13, align 8
  call void @llvm.lifetime.start.p0(i64 4, ptr %14) #9
  call void @llvm.lifetime.start.p0(i64 4, ptr %15) #9
  %31 = load i32, ptr %27, align 4, !tbaa !46
  store i32 %31, ptr %15, align 4, !tbaa !46
  call void @llvm.lifetime.start.p0(i64 4, ptr %16) #9
  %32 = load i32, ptr %15, align 4, !tbaa !46
  %33 = sub nsw i32 %32, 0
  %34 = sdiv i32 %33, 1
  %35 = sub nsw i32 %34, 1
  store i32 %35, ptr %16, align 4, !tbaa !46
  call void @llvm.lifetime.start.p0(i64 4, ptr %17) #9
  store i32 0, ptr %17, align 4, !tbaa !46
  call void @llvm.lifetime.end.p0(i64 4, ptr %17) #9
  %36 = load i32, ptr %15, align 4, !tbaa !46
  %37 = icmp slt i32 0, %36
  br i1 %37, label %38, label %102

38:                                               ; preds = %6
  call void @llvm.lifetime.start.p0(i64 4, ptr %18) #9
  store i32 0, ptr %18, align 4, !tbaa !46
  call void @llvm.lifetime.start.p0(i64 4, ptr %19) #9
  %39 = load i32, ptr %16, align 4, !tbaa !46
  store i32 %39, ptr %19, align 4, !tbaa !46
  call void @llvm.lifetime.start.p0(i64 4, ptr %20) #9
  store i32 1, ptr %20, align 4, !tbaa !46
  call void @llvm.lifetime.start.p0(i64 4, ptr %21) #9
  store i32 0, ptr %21, align 4, !tbaa !46
  call void @llvm.lifetime.start.p0(i64 4, ptr %22) #9
  %40 = load ptr, ptr %7, align 8
  %41 = load i32, ptr %40, align 4, !tbaa !46
  call void @__kmpc_for_static_init_4(ptr @1, i32 %41, i32 34, ptr %21, ptr %18, ptr %19, ptr %20, i32 1, i32 1)
  %42 = load i32, ptr %19, align 4, !tbaa !46
  %43 = load i32, ptr %16, align 4, !tbaa !46
  %44 = icmp sgt i32 %42, %43
  br i1 %44, label %45, label %47

45:                                               ; preds = %38
  %46 = load i32, ptr %16, align 4, !tbaa !46
  br label %49

47:                                               ; preds = %38
  %48 = load i32, ptr %19, align 4, !tbaa !46
  br label %49

49:                                               ; preds = %47, %45
  %50 = phi i32 [ %46, %45 ], [ %48, %47 ]
  store i32 %50, ptr %19, align 4, !tbaa !46
  %51 = load i32, ptr %18, align 4, !tbaa !46
  store i32 %51, ptr %14, align 4, !tbaa !46
  br label %52

52:                                               ; preds = %95, %49
  %53 = load i32, ptr %14, align 4, !tbaa !46
  %54 = load i32, ptr %19, align 4, !tbaa !46
  %55 = icmp sle i32 %53, %54
  br i1 %55, label %57, label %56

56:                                               ; preds = %52
  br label %98

57:                                               ; preds = %52
  %58 = load i32, ptr %14, align 4, !tbaa !46
  %59 = mul nsw i32 %58, 1
  %60 = add nsw i32 0, %59
  store i32 %60, ptr %22, align 4, !tbaa !46
  call void @llvm.lifetime.start.p0(i64 8, ptr %23) #9
  call void @llvm.lifetime.start.p0(i64 72, ptr %24) #9
  %61 = load ptr, ptr %13, align 8, !tbaa !42
  %62 = load i32, ptr %22, align 4, !tbaa !46
  invoke void @_ZN4ncnn3Mat7channelEi(ptr dead_on_unwind writable sret(%"class.ncnn::Mat") align 8 %24, ptr noundef nonnull align 8 dereferenceable(72) %61, i32 noundef %62)
          to label %63 unwind label %103

63:                                               ; preds = %57
  %64 = invoke noundef ptr @_ZN4ncnn3MatcvPT_IKfEEv(ptr noundef nonnull align 8 dereferenceable(72) %24)
          to label %65 unwind label %103

65:                                               ; preds = %63
  call void @_ZN4ncnn3MatD2Ev(ptr noundef nonnull align 8 dereferenceable(72) %24) #9
  call void @llvm.lifetime.end.p0(i64 72, ptr %24) #9
  store ptr %64, ptr %23, align 8, !tbaa !68
  call void @llvm.lifetime.start.p0(i64 4, ptr %25) #9
  store float 0.000000e+00, ptr %25, align 4, !tbaa !54
  call void @llvm.lifetime.start.p0(i64 4, ptr %26) #9
  store i32 0, ptr %26, align 4, !tbaa !46
  br label %66

66:                                               ; preds = %85, %65
  %67 = load i32, ptr %26, align 4, !tbaa !46
  %68 = load i32, ptr %29, align 4, !tbaa !46
  %69 = icmp slt i32 %67, %68
  br i1 %69, label %71, label %70

70:                                               ; preds = %66
  call void @llvm.lifetime.end.p0(i64 4, ptr %26) #9
  br label %88

71:                                               ; preds = %66
  %72 = load ptr, ptr %23, align 8, !tbaa !68
  %73 = load i32, ptr %26, align 4, !tbaa !46
  %74 = sext i32 %73 to i64
  %75 = getelementptr inbounds float, ptr %72, i64 %74
  %76 = load float, ptr %75, align 4, !tbaa !54
  %77 = load ptr, ptr %23, align 8, !tbaa !68
  %78 = load i32, ptr %26, align 4, !tbaa !46
  %79 = sext i32 %78 to i64
  %80 = getelementptr inbounds float, ptr %77, i64 %79
  %81 = load float, ptr %80, align 4, !tbaa !54
  %82 = fmul fast float %76, %81
  %83 = load float, ptr %25, align 4, !tbaa !54
  %84 = fadd fast float %83, %82
  store float %84, ptr %25, align 4, !tbaa !54
  br label %85

85:                                               ; preds = %71
  %86 = load i32, ptr %26, align 4, !tbaa !46
  %87 = add nsw i32 %86, 1
  store i32 %87, ptr %26, align 4, !tbaa !46
  br label %66, !llvm.loop !70

88:                                               ; preds = %70
  %89 = load float, ptr %25, align 4, !tbaa !54
  %90 = load i32, ptr %22, align 4, !tbaa !46
  %91 = sext i32 %90 to i64
  %92 = invoke noundef nonnull align 4 dereferenceable(4) ptr @_ZN4ncnn3MatixEm(ptr noundef nonnull align 8 dereferenceable(72) %30, i64 noundef %91)
          to label %93 unwind label %103

93:                                               ; preds = %88
  store float %89, ptr %92, align 4, !tbaa !54
  call void @llvm.lifetime.end.p0(i64 4, ptr %25) #9
  call void @llvm.lifetime.end.p0(i64 8, ptr %23) #9
  br label %94

94:                                               ; preds = %93
  br label %95

95:                                               ; preds = %94
  %96 = load i32, ptr %14, align 4, !tbaa !46
  %97 = add nsw i32 %96, 1
  store i32 %97, ptr %14, align 4, !tbaa !46
  br label %52

98:                                               ; preds = %56
  br label %99

99:                                               ; preds = %98
  %100 = load ptr, ptr %7, align 8
  %101 = load i32, ptr %100, align 4, !tbaa !46
  call void @__kmpc_for_static_fini(ptr @1, i32 %101)
  call void @llvm.lifetime.end.p0(i64 4, ptr %22) #9
  call void @llvm.lifetime.end.p0(i64 4, ptr %21) #9
  call void @llvm.lifetime.end.p0(i64 4, ptr %20) #9
  call void @llvm.lifetime.end.p0(i64 4, ptr %19) #9
  call void @llvm.lifetime.end.p0(i64 4, ptr %18) #9
  br label %102

102:                                              ; preds = %99, %6
  call void @llvm.lifetime.end.p0(i64 4, ptr %16) #9
  call void @llvm.lifetime.end.p0(i64 4, ptr %15) #9
  call void @llvm.lifetime.end.p0(i64 4, ptr %14) #9
  ret void

103:                                              ; preds = %88, %63, %57
  %104 = landingpad { ptr, i32 }
          catch ptr null
  %105 = extractvalue { ptr, i32 } %104, 0
  call void @__clang_call_terminate(ptr %105) #13
  unreachable
}